; Function Attrs: mustprogress nounwind uwtable
define dso_local { i16, ptr } @_ZN4llvm3EVT19getExtendedVectorVTERNS_11LLVMContextES0_jb(ptr noundef nonnull align 1 %0, i16 %1, ptr %2, i32 noundef %3, i1 noundef zeroext %4) local_unnamed_addr #0 align 2 {
  %6 = alloca %"struct.llvm::EVT", align 8
  store i16 %1, ptr %6, align 8
  %7 = getelementptr inbounds nuw i8, ptr %6, i64 8
  store ptr %2, ptr %7, align 8
  %8 = call noundef ptr @_ZNK4llvm3EVT13getTypeForEVTERNS_11LLVMContextE(ptr noundef nonnull align 8 dereferenceable(16) %6, ptr noundef nonnull align 1 %0)
  %.sroa.2.0.insert.shift.i.i = select i1 %4, i64 4294967296, i64 0
  %.sroa.0.0.insert.ext.i.i = zext i32 %3 to i64
  %.sroa.0.0.insert.insert.i.i = or disjoint i64 %.sroa.2.0.insert.shift.i.i, %.sroa.0.0.insert.ext.i.i
  %9 = tail call noundef ptr @_ZN4llvm10VectorType3getEPNS_4TypeENS_12ElementCountE(ptr noundef %8, i64 %.sroa.0.0.insert.insert.i.i) #15
  %.fca.1.insert = insertvalue { i16, ptr } { i16 0, ptr poison }, ptr %9, 1
  ret { i16, ptr } %.fca.1.insert
}